; Function Attrs: cold nounwind optsize uwtable
define internal noundef i32 @dnxhd_encode_end(ptr noundef readonly captures(none) %0) #0 {
  %2 = getelementptr inbounds nuw i8, ptr %0, i64 32
  %3 = load ptr, ptr %2, align 8, !tbaa !4
  %4 = getelementptr inbounds nuw i8, ptr %3, i64 10480
  tail call void @av_freep(ptr noundef nonnull %4) #11
  %5 = getelementptr inbounds nuw i8, ptr %3, i64 10488
  tail call void @av_freep(ptr noundef nonnull %5) #11
  %6 = getelementptr inbounds nuw i8, ptr %3, i64 10512
  tail call void @av_freep(ptr noundef nonnull %6) #11
  %7 = getelementptr inbounds nuw i8, ptr %3, i64 10520
  tail call void @av_freep(ptr noundef nonnull %7) #11
  %8 = getelementptr inbounds nuw i8, ptr %3, i64 10544
  tail call void @av_freep(ptr noundef nonnull %8) #11
  %9 = getelementptr inbounds nuw i8, ptr %3, i64 10552
  tail call void @av_freep(ptr noundef nonnull %9) #11
  %10 = getelementptr inbounds nuw i8, ptr %3, i64 10576
  tail call void @av_freep(ptr noundef nonnull %10) #11
  %11 = getelementptr inbounds nuw i8, ptr %3, i64 10560
  tail call void @av_freep(ptr noundef nonnull %11) #11
  %12 = getelementptr inbounds nuw i8, ptr %3, i64 10568
  tail call void @av_freep(ptr noundef nonnull %12) #11
  %13 = getelementptr inbounds nuw i8, ptr %3, i64 7024
  tail call void @av_freep(ptr noundef nonnull %13) #11
  %14 = getelementptr inbounds nuw i8, ptr %3, i64 7032
  tail call void @av_freep(ptr noundef nonnull %14) #11
  %15 = getelementptr inbounds nuw i8, ptr %3, i64 10416
  tail call void @av_freep(ptr noundef nonnull %15) #11
  %16 = getelementptr inbounds nuw i8, ptr %3, i64 10424
  tail call void @av_freep(ptr noundef nonnull %16) #11
  %17 = getelementptr inbounds nuw i8, ptr %3, i64 10440
  tail call void @av_freep(ptr noundef nonnull %17) #11
  %18 = getelementptr inbounds nuw i8, ptr %3, i64 10432
  tail call void @av_freep(ptr noundef nonnull %18) #11
  %19 = getelementptr inbounds nuw i8, ptr %3, i64 7040
  %20 = getelementptr inbounds nuw i8, ptr %3, i64 7048
  %21 = load ptr, ptr %20, align 8, !tbaa !98
  %.not = icmp eq ptr %21, null
  br i1 %.not, label %.loopexit, label %.preheader

.preheader:                                       ; preds = %1
  %22 = getelementptr inbounds nuw i8, ptr %0, i64 656
  %23 = load i32, ptr %22, align 8, !tbaa !96
  %24 = icmp sgt i32 %23, 1
  br i1 %24, label %.lr.ph, label %.loopexit

.lr.ph:                                           ; preds = %.preheader, %.lr.ph
  %indvars.iv = phi i64 [ %indvars.iv.next, %.lr.ph ], [ 1, %.preheader ]
  %25 = getelementptr inbounds nuw [32 x ptr], ptr %19, i64 0, i64 %indvars.iv
  tail call void @av_freep(ptr noundef nonnull %25) #11
  %indvars.iv.next = add nuw nsw i64 %indvars.iv, 1
  %26 = load i32, ptr %22, align 8, !tbaa !96
  %27 = sext i32 %26 to i64
  %28 = icmp slt i64 %indvars.iv.next, %27
  br i1 %28, label %.lr.ph, label %.loopexit, !llvm.loop !153

.loopexit:                                        ; preds = %.lr.ph, %.preheader, %1
  ret i32 0
}